; Function Attrs: nounwind uwtable
define i32 @Llb_ManCutVolume(ptr noundef %0, ptr noundef readonly captures(none) %1, ptr noundef readonly captures(none) %2) local_unnamed_addr #0 {
  tail call void @Aig_ManIncrementTravId(ptr noundef %0) #22
  %4 = getelementptr i8, ptr %1, i64 4
  %.val21 = load i32, ptr %4, align 4, !tbaa !10
  %5 = icmp sgt i32 %.val21, 0
  br i1 %5, label %.lr.ph, label %.critedge.preheader

.lr.ph:                                           ; preds = %3
  %6 = getelementptr i8, ptr %1, i64 8
  %.val19 = load ptr, ptr %6, align 8, !tbaa !9
  %7 = getelementptr i8, ptr %0, i64 312
  %.val22 = load i32, ptr %7, align 8, !tbaa !14
  %wide.trip.count = zext nneg i32 %.val21 to i64
  br label %11

.critedge.preheader:                              ; preds = %11, %3
  %8 = getelementptr i8, ptr %2, i64 4
  %.val2024 = load i32, ptr %8, align 4, !tbaa !10
  %9 = icmp sgt i32 %.val2024, 0
  br i1 %9, label %.lr.ph27, label %.critedge2

.lr.ph27:                                         ; preds = %.critedge.preheader
  %10 = getelementptr i8, ptr %2, i64 8
  br label %.critedge

11:                                               ; preds = %.lr.ph, %11
  %indvars.iv = phi i64 [ 0, %.lr.ph ], [ %indvars.iv.next, %11 ]
  %12 = getelementptr inbounds nuw ptr, ptr %.val19, i64 %indvars.iv
  %13 = load ptr, ptr %12, align 8, !tbaa !11
  %14 = getelementptr inbounds nuw i8, ptr %13, i64 32
  store i32 %.val22, ptr %14, align 8, !tbaa !28
  %indvars.iv.next = add nuw nsw i64 %indvars.iv, 1
  %exitcond.not = icmp eq i64 %indvars.iv.next, %wide.trip.count
  br i1 %exitcond.not, label %.critedge.preheader, label %11, !llvm.loop !65

.critedge:                                        ; preds = %.lr.ph27, %.critedge
  %indvars.iv29 = phi i64 [ 0, %.lr.ph27 ], [ %indvars.iv.next30, %.critedge ]
  %.026 = phi i32 [ 0, %.lr.ph27 ], [ %18, %.critedge ]
  %.val = load ptr, ptr %10, align 8, !tbaa !9
  %15 = getelementptr inbounds nuw ptr, ptr %.val, i64 %indvars.iv29
  %16 = load ptr, ptr %15, align 8, !tbaa !11
  %17 = tail call i32 @Llb_ManCutVolume_rec(ptr noundef %0, ptr noundef %16)
  %18 = add nsw i32 %17, %.026
  %indvars.iv.next30 = add nuw nsw i64 %indvars.iv29, 1
  %.val20 = load i32, ptr %8, align 4, !tbaa !10
  %19 = sext i32 %.val20 to i64
  %20 = icmp slt i64 %indvars.iv.next30, %19
  br i1 %20, label %.critedge, label %.critedge2, !llvm.loop !66

.critedge2:                                       ; preds = %.critedge, %.critedge.preheader
  %.0.lcssa = phi i32 [ 0, %.critedge.preheader ], [ %18, %.critedge ]
  ret i32 %.0.lcssa
}